; Function Attrs: mustprogress uwtable
define noundef nonnull align 8 dereferenceable(89) ptr @_ZN14duckdb_parquet20ColumnCryptoMetaDataaSERKS0_(ptr noundef nonnull returned align 8 dereferenceable(89) %0, ptr noundef nonnull align 8 dereferenceable(89) %1) local_unnamed_addr #2 align 2 {
  %3 = getelementptr inbounds nuw i8, ptr %1, i64 24
  %4 = getelementptr inbounds nuw i8, ptr %0, i64 24
  %5 = tail call noundef nonnull align 8 dereferenceable(24) ptr @_ZNSt6vectorINSt7__cxx1112basic_stringIcSt11char_traitsIcESaIcEEESaIS5_EEaSERKS7_(ptr noundef nonnull align 8 dereferenceable(24) %4, ptr noundef nonnull align 8 dereferenceable(24) %3)
  %6 = getelementptr inbounds nuw i8, ptr %1, i64 48
  %7 = getelementptr inbounds nuw i8, ptr %0, i64 48
  tail call void @_ZNSt7__cxx1112basic_stringIcSt11char_traitsIcESaIcEE9_M_assignERKS4_(ptr noundef nonnull align 8 dereferenceable(32) %7, ptr noundef nonnull align 8 dereferenceable(32) %6)
  %8 = getelementptr inbounds nuw i8, ptr %1, i64 80
  %9 = getelementptr inbounds nuw i8, ptr %0, i64 80
  %10 = load i8, ptr %8, align 8, !tbaa !38
  store i8 %10, ptr %9, align 8, !tbaa !38
  %11 = getelementptr inbounds nuw i8, ptr %1, i64 88
  %12 = getelementptr inbounds nuw i8, ptr %0, i64 88
  %13 = load i8, ptr %11, align 8, !tbaa !38
  store i8 %13, ptr %12, align 8, !tbaa !38
  ret ptr %0
}